; Function Attrs: nounwind uwtable
define dso_local ptr @dbFindExpires(ptr noundef readonly captures(none) %0, ptr noundef %1) local_unnamed_addr #0 {
  %3 = getelementptr inbounds nuw i8, ptr %0, i64 8
  %4 = load ptr, ptr %3, align 8, !tbaa !72
  %5 = load ptr, ptr getelementptr inbounds nuw (i8, ptr @server, i64 1480), align 8, !tbaa !20
  %.not.i.i = icmp eq ptr %5, null
  br i1 %.not.i.i, label %14, label %6

6:                                                ; preds = %2
  %7 = getelementptr inbounds nuw i8, ptr %5, i64 232
  %8 = load i32, ptr %7, align 8, !tbaa !44
  %9 = icmp sgt i32 %8, -1
  br i1 %9, label %10, label %14

10:                                               ; preds = %6
  %11 = getelementptr inbounds nuw i8, ptr %5, i64 8
  %12 = load i64, ptr %11, align 8, !tbaa !55
  %13 = and i64 %12, 536870912
  %.not3.i.i = icmp eq i64 %13, 0
  br i1 %.not3.i.i, label %14, label %dbFindGeneric.exit

14:                                               ; preds = %10, %6, %2
  %15 = tail call i32 @calculateKeySlot(ptr noundef %1)
  br label %dbFindGeneric.exit

dbFindGeneric.exit:                               ; preds = %10, %14
  %.0.i.i = phi i32 [ %15, %14 ], [ %8, %10 ]
  %16 = tail call ptr @kvstoreDictFind(ptr noundef %4, i32 noundef %.0.i.i, ptr noundef %1) #20
  ret ptr %16
}